target datalayout = "e-m:e-p270:32:32-p271:32:32-p272:64:64-i64:64-i128:128-f80:128-n8:16:32:64-S128"
target triple = "x86_64-pc-linux-gnu"

%struct.EC_CURVE_DATA = type { i32, i32, i32, i32 }
%struct._ec_list_element_st = type { i32, ptr, ptr, ptr }
%struct.ec_group_st = type { ptr, ptr, ptr, ptr, i32, i32, i32, i32, ptr, i64, ptr, [6 x i32], ptr, ptr, i32, ptr, ptr, ptr, ptr, i32, %union.anon, ptr, ptr }
%union.anon = type { ptr }

@.str = private unnamed_addr constant [32 x i8] c"../openssl/crypto/ec/ec_curve.c\00", align 1

; Function Attrs: nounwind uwtable
define i32 @ossl_ec_curve_nid_from_params(ptr noundef %0, ptr noundef %1) #0 {
  %3 = alloca i32, align 4
  %4 = alloca ptr, align 8
  %5 = alloca ptr, align 8
  %6 = alloca i32, align 4
  %7 = alloca i32, align 4
  %8 = alloca i32, align 4
  %9 = alloca i32, align 4
  %10 = alloca i32, align 4
  %11 = alloca i64, align 8
  %12 = alloca i64, align 8
  %13 = alloca ptr, align 8
  %14 = alloca ptr, align 8
  %15 = alloca ptr, align 8
  %16 = alloca ptr, align 8
  %17 = alloca ptr, align 8
  %18 = alloca ptr, align 8
  %19 = alloca ptr, align 8
  %20 = alloca [6 x ptr], align 16
  %21 = alloca %struct._ec_list_element_st, align 8
  %22 = alloca i32, align 4
  store ptr %0, ptr %4, align 8, !tbaa !12
  store ptr %1, ptr %5, align 8, !tbaa !24
  call void @llvm.lifetime.start.p0(i64 4, ptr %6) #6
  store i32 -1, ptr %6, align 4, !tbaa !10
  call void @llvm.lifetime.start.p0(i64 4, ptr %7) #6
  call void @llvm.lifetime.start.p0(i64 4, ptr %8) #6
  call void @llvm.lifetime.start.p0(i64 4, ptr %9) #6
  call void @llvm.lifetime.start.p0(i64 4, ptr %10) #6
  call void @llvm.lifetime.start.p0(i64 8, ptr %11) #6
  call void @llvm.lifetime.start.p0(i64 8, ptr %12) #6
  call void @llvm.lifetime.start.p0(i64 8, ptr %13) #6
  call void @llvm.lifetime.start.p0(i64 8, ptr %14) #6
  call void @llvm.lifetime.start.p0(i64 8, ptr %15) #6
  call void @llvm.lifetime.start.p0(i64 8, ptr %16) #6
  store ptr null, ptr %16, align 8, !tbaa !8
  call void @llvm.lifetime.start.p0(i64 8, ptr %17) #6
  call void @llvm.lifetime.start.p0(i64 8, ptr %18) #6
  store ptr null, ptr %18, align 8, !tbaa !22
  call void @llvm.lifetime.start.p0(i64 8, ptr %19) #6
  store ptr null, ptr %19, align 8, !tbaa !26
  call void @llvm.lifetime.start.p0(i64 48, ptr %20) #6
  call void @llvm.memset.p0.i64(ptr align 16 %20, i8 0, i64 48, i1 false)
  %23 = load ptr, ptr %4, align 8, !tbaa !12
  %24 = call i32 @EC_GROUP_get_curve_name(ptr noundef %23)
  store i32 %24, ptr %7, align 4, !tbaa !10
  %25 = load ptr, ptr %4, align 8, !tbaa !12
  %26 = call i32 @EC_GROUP_get_field_type(ptr noundef %25)
  store i32 %26, ptr %9, align 4, !tbaa !10
  %27 = load ptr, ptr %4, align 8, !tbaa !12
  %28 = call i64 @EC_GROUP_get_seed_len(ptr noundef %27)
  store i64 %28, ptr %12, align 8, !tbaa !16
  %29 = load ptr, ptr %4, align 8, !tbaa !12
  %30 = call ptr @EC_GROUP_get0_seed(ptr noundef %29)
  store ptr %30, ptr %13, align 8, !tbaa !8
  %31 = load ptr, ptr %4, align 8, !tbaa !12
  %32 = call ptr @EC_GROUP_get0_cofactor(ptr noundef %31)
  store ptr %32, ptr %19, align 8, !tbaa !26
  %33 = load ptr, ptr %5, align 8, !tbaa !24
  call void @BN_CTX_start(ptr noundef %33)
  %34 = load ptr, ptr %4, align 8, !tbaa !12
  %35 = getelementptr inbounds nuw %struct.ec_group_st, ptr %34, i32 0, i32 2
  %36 = load ptr, ptr %35, align 8, !tbaa !51
  %37 = call i32 @BN_num_bits(ptr noundef %36)
  %38 = add nsw i32 %37, 7
  %39 = sdiv i32 %38, 8
  store i32 %39, ptr %10, align 4, !tbaa !10
  %40 = load ptr, ptr %4, align 8, !tbaa !12
  %41 = getelementptr inbounds nuw %struct.ec_group_st, ptr %40, i32 0, i32 10
  %42 = load ptr, ptr %41, align 8, !tbaa !52
  %43 = call i32 @BN_num_bits(ptr noundef %42)
  %44 = add nsw i32 %43, 7
  %45 = sdiv i32 %44, 8
  store i32 %45, ptr %8, align 4, !tbaa !10
  %46 = load i32, ptr %8, align 4, !tbaa !10
  %47 = load i32, ptr %10, align 4, !tbaa !10
  %48 = icmp sgt i32 %46, %47
  br i1 %48, label %49, label %51

49:                                               ; preds = %2
  %50 = load i32, ptr %8, align 4, !tbaa !10
  store i32 %50, ptr %10, align 4, !tbaa !10
  br label %51

51:                                               ; preds = %49, %2
  %52 = load i32, ptr %10, align 4, !tbaa !10
  %53 = mul nsw i32 %52, 6
  %54 = sext i32 %53 to i64
  %55 = call noalias ptr @CRYPTO_malloc(i64 noundef %54, ptr noundef @.str, i32 noundef 3409)
  store ptr %55, ptr %16, align 8, !tbaa !8
  %56 = load ptr, ptr %16, align 8, !tbaa !8
  %57 = icmp eq ptr %56, null
  br i1 %57, label %58, label %59

58:                                               ; preds = %51
  br label %218

59:                                               ; preds = %51
  store i64 0, ptr %11, align 8, !tbaa !16
  br label %60

60:                                               ; preds = %71, %59
  %61 = load i64, ptr %11, align 8, !tbaa !16
  %62 = icmp ult i64 %61, 6
  br i1 %62, label %63, label %74

63:                                               ; preds = %60
  %64 = load ptr, ptr %5, align 8, !tbaa !24
  %65 = call ptr @BN_CTX_get(ptr noundef %64)
  %66 = load i64, ptr %11, align 8, !tbaa !16
  %67 = getelementptr inbounds nuw [6 x ptr], ptr %20, i64 0, i64 %66
  store ptr %65, ptr %67, align 8, !tbaa !26
  %68 = icmp eq ptr %65, null
  br i1 %68, label %69, label %70

69:                                               ; preds = %63
  br label %218

70:                                               ; preds = %63
  br label %71

71:                                               ; preds = %70
  %72 = load i64, ptr %11, align 8, !tbaa !16
  %73 = add i64 %72, 1
  store i64 %73, ptr %11, align 8, !tbaa !16
  br label %60, !llvm.loop !53

74:                                               ; preds = %60
  %75 = load ptr, ptr %4, align 8, !tbaa !12
  %76 = getelementptr inbounds [6 x ptr], ptr %20, i64 0, i64 0
  %77 = load ptr, ptr %76, align 16, !tbaa !26
  %78 = getelementptr inbounds [6 x ptr], ptr %20, i64 0, i64 1
  %79 = load ptr, ptr %78, align 8, !tbaa !26
  %80 = getelementptr inbounds [6 x ptr], ptr %20, i64 0, i64 2
  %81 = load ptr, ptr %80, align 16, !tbaa !26
  %82 = load ptr, ptr %5, align 8, !tbaa !24
  %83 = call i32 @EC_GROUP_get_curve(ptr noundef %75, ptr noundef %77, ptr noundef %79, ptr noundef %81, ptr noundef %82)
  %84 = icmp ne i32 %83, 0
  br i1 %84, label %85, label %106

85:                                               ; preds = %74
  %86 = load ptr, ptr %4, align 8, !tbaa !12
  %87 = call ptr @EC_GROUP_get0_generator(ptr noundef %86)
  store ptr %87, ptr %18, align 8, !tbaa !22
  %88 = icmp ne ptr %87, null
  br i1 %88, label %89, label %106

89:                                               ; preds = %85
  %90 = load ptr, ptr %4, align 8, !tbaa !12
  %91 = load ptr, ptr %18, align 8, !tbaa !22
  %92 = getelementptr inbounds [6 x ptr], ptr %20, i64 0, i64 3
  %93 = load ptr, ptr %92, align 8, !tbaa !26
  %94 = getelementptr inbounds [6 x ptr], ptr %20, i64 0, i64 4
  %95 = load ptr, ptr %94, align 16, !tbaa !26
  %96 = load ptr, ptr %5, align 8, !tbaa !24
  %97 = call i32 @EC_POINT_get_affine_coordinates(ptr noundef %90, ptr noundef %91, ptr noundef %93, ptr noundef %95, ptr noundef %96)
  %98 = icmp ne i32 %97, 0
  br i1 %98, label %99, label %106

99:                                               ; preds = %89
  %100 = load ptr, ptr %4, align 8, !tbaa !12
  %101 = getelementptr inbounds [6 x ptr], ptr %20, i64 0, i64 5
  %102 = load ptr, ptr %101, align 8, !tbaa !26
  %103 = load ptr, ptr %5, align 8, !tbaa !24
  %104 = call i32 @EC_GROUP_get_order(ptr noundef %100, ptr noundef %102, ptr noundef %103)
  %105 = icmp ne i32 %104, 0
  br i1 %105, label %107, label %106

106:                                              ; preds = %99, %89, %85, %74
  br label %218

107:                                              ; preds = %99
  store i64 0, ptr %11, align 8, !tbaa !16
  br label %108

108:                                              ; preds = %126, %107
  %109 = load i64, ptr %11, align 8, !tbaa !16
  %110 = icmp ult i64 %109, 6
  br i1 %110, label %111, label %129

111:                                              ; preds = %108
  %112 = load i64, ptr %11, align 8, !tbaa !16
  %113 = getelementptr inbounds nuw [6 x ptr], ptr %20, i64 0, i64 %112
  %114 = load ptr, ptr %113, align 8, !tbaa !26
  %115 = load ptr, ptr %16, align 8, !tbaa !8
  %116 = load i64, ptr %11, align 8, !tbaa !16
  %117 = load i32, ptr %10, align 4, !tbaa !10
  %118 = sext i32 %117 to i64
  %119 = mul i64 %116, %118
  %120 = getelementptr inbounds nuw i8, ptr %115, i64 %119
  %121 = load i32, ptr %10, align 4, !tbaa !10
  %122 = call i32 @BN_bn2binpad(ptr noundef %114, ptr noundef %120, i32 noundef %121)
  %123 = icmp sle i32 %122, 0
  br i1 %123, label %124, label %125

124:                                              ; preds = %111
  br label %218

125:                                              ; preds = %111
  br label %126

126:                                              ; preds = %125
  %127 = load i64, ptr %11, align 8, !tbaa !16
  %128 = add i64 %127, 1
  store i64 %128, ptr %11, align 8, !tbaa !16
  br label %108, !llvm.loop !54

129:                                              ; preds = %108
  store i64 0, ptr %11, align 8, !tbaa !16
  br label %130

130:                                              ; preds = %214, %129
  %131 = load i64, ptr %11, align 8, !tbaa !16
  %132 = icmp ult i64 %131, 82
  br i1 %132, label %133, label %217

133:                                              ; preds = %130
  call void @llvm.lifetime.start.p0(i64 32, ptr %21) #6
  %134 = load i64, ptr %11, align 8, !tbaa !16
  %135 = getelementptr inbounds nuw [82 x %struct._ec_list_element_st], ptr @curve_list, i64 0, i64 %134
  call void @llvm.memcpy.p0.p0.i64(ptr align 8 %21, ptr align 16 %135, i64 32, i1 false), !tbaa.struct !55
  %136 = getelementptr inbounds nuw %struct._ec_list_element_st, ptr %21, i32 0, i32 1
  %137 = load ptr, ptr %136, align 8, !tbaa !28
  store ptr %137, ptr %17, align 8, !tbaa !30
  %138 = load ptr, ptr %17, align 8, !tbaa !30
  %139 = getelementptr inbounds %struct.EC_CURVE_DATA, ptr %138, i64 1
  store ptr %139, ptr %14, align 8, !tbaa !8
  %140 = load ptr, ptr %14, align 8, !tbaa !8
  %141 = load ptr, ptr %17, align 8, !tbaa !30
  %142 = getelementptr inbounds nuw %struct.EC_CURVE_DATA, ptr %141, i32 0, i32 1
  %143 = load i32, ptr %142, align 4, !tbaa !31
  %144 = sext i32 %143 to i64
  %145 = getelementptr inbounds i8, ptr %140, i64 %144
  store ptr %145, ptr %15, align 8, !tbaa !8
  %146 = load ptr, ptr %17, align 8, !tbaa !30
  %147 = getelementptr inbounds nuw %struct.EC_CURVE_DATA, ptr %146, i32 0, i32 0
  %148 = load i32, ptr %147, align 4, !tbaa !42
  %149 = load i32, ptr %9, align 4, !tbaa !10
  %150 = icmp eq i32 %148, %149
  br i1 %150, label %151, label %210

151:                                              ; preds = %133
  %152 = load i32, ptr %10, align 4, !tbaa !10
  %153 = load ptr, ptr %17, align 8, !tbaa !30
  %154 = getelementptr inbounds nuw %struct.EC_CURVE_DATA, ptr %153, i32 0, i32 2
  %155 = load i32, ptr %154, align 4, !tbaa !33
  %156 = icmp eq i32 %152, %155
  br i1 %156, label %157, label %210

157:                                              ; preds = %151
  %158 = load i32, ptr %7, align 4, !tbaa !10
  %159 = icmp sle i32 %158, 0
  br i1 %159, label %165, label %160

160:                                              ; preds = %157
  %161 = load i32, ptr %7, align 4, !tbaa !10
  %162 = getelementptr inbounds nuw %struct._ec_list_element_st, ptr %21, i32 0, i32 0
  %163 = load i32, ptr %162, align 8, !tbaa !18
  %164 = icmp eq i32 %161, %163
  br i1 %164, label %165, label %210

165:                                              ; preds = %160, %157
  %166 = load ptr, ptr %19, align 8, !tbaa !26
  %167 = call i32 @BN_is_zero(ptr noundef %166)
  %168 = icmp ne i32 %167, 0
  br i1 %168, label %178, label %169

169:                                              ; preds = %165
  %170 = load ptr, ptr %19, align 8, !tbaa !26
  %171 = getelementptr inbounds nuw %struct._ec_list_element_st, ptr %21, i32 0, i32 1
  %172 = load ptr, ptr %171, align 8, !tbaa !28
  %173 = getelementptr inbounds nuw %struct.EC_CURVE_DATA, ptr %172, i32 0, i32 3
  %174 = load i32, ptr %173, align 4, !tbaa !43
  %175 = zext i32 %174 to i64
  %176 = call i32 @BN_is_word(ptr noundef %170, i64 noundef %175)
  %177 = icmp ne i32 %176, 0
  br i1 %177, label %178, label %210

178:                                              ; preds = %169, %165
  %179 = load ptr, ptr %17, align 8, !tbaa !30
  %180 = getelementptr inbounds nuw %struct.EC_CURVE_DATA, ptr %179, i32 0, i32 1
  %181 = load i32, ptr %180, align 4, !tbaa !31
  %182 = icmp eq i32 %181, 0
  br i1 %182, label %199, label %183

183:                                              ; preds = %178
  %184 = load i64, ptr %12, align 8, !tbaa !16
  %185 = icmp eq i64 %184, 0
  br i1 %185, label %199, label %186

186:                                              ; preds = %183
  %187 = load ptr, ptr %17, align 8, !tbaa !30
  %188 = getelementptr inbounds nuw %struct.EC_CURVE_DATA, ptr %187, i32 0, i32 1
  %189 = load i32, ptr %188, align 4, !tbaa !31
  %190 = sext i32 %189 to i64
  %191 = load i64, ptr %12, align 8, !tbaa !16
  %192 = icmp eq i64 %190, %191
  br i1 %192, label %193, label %210

193:                                              ; preds = %186
  %194 = load ptr, ptr %14, align 8, !tbaa !8
  %195 = load ptr, ptr %13, align 8, !tbaa !8
  %196 = load i64, ptr %12, align 8, !tbaa !16
  %197 = call i32 @memcmp(ptr noundef %194, ptr noundef %195, i64 noundef %196) #7
  %198 = icmp eq i32 %197, 0
  br i1 %198, label %199, label %210

199:                                              ; preds = %193, %183, %178
  %200 = load ptr, ptr %16, align 8, !tbaa !8
  %201 = load ptr, ptr %15, align 8, !tbaa !8
  %202 = load i32, ptr %10, align 4, !tbaa !10
  %203 = mul nsw i32 %202, 6
  %204 = sext i32 %203 to i64
  %205 = call i32 @memcmp(ptr noundef %200, ptr noundef %201, i64 noundef %204) #7
  %206 = icmp eq i32 %205, 0
  br i1 %206, label %207, label %210

207:                                              ; preds = %199
  %208 = getelementptr inbounds nuw %struct._ec_list_element_st, ptr %21, i32 0, i32 0
  %209 = load i32, ptr %208, align 8, !tbaa !18
  store i32 %209, ptr %6, align 4, !tbaa !10
  store i32 2, ptr %22, align 4
  br label %211

210:                                              ; preds = %199, %193, %186, %169, %160, %151, %133
  store i32 0, ptr %22, align 4
  br label %211

211:                                              ; preds = %207, %210
  call void @llvm.lifetime.end.p0(i64 32, ptr %21) #6
  %212 = load i32, ptr %22, align 4
  switch i32 %212, label %222 [
    i32 0, label %213
    i32 2, label %218
  ]

213:                                              ; preds = %211
  br label %214

214:                                              ; preds = %213
  %215 = load i64, ptr %11, align 8, !tbaa !16
  %216 = add i64 %215, 1
  store i64 %216, ptr %11, align 8, !tbaa !16
  br label %130, !llvm.loop !56

217:                                              ; preds = %130
  store i32 0, ptr %6, align 4, !tbaa !10
  br label %218

218:                                              ; preds = %217, %211, %124, %106, %69, %58
  %219 = load ptr, ptr %16, align 8, !tbaa !8
  call void @CRYPTO_free(ptr noundef %219, ptr noundef @.str, i32 noundef 3470)
  %220 = load ptr, ptr %5, align 8, !tbaa !24
  call void @BN_CTX_end(ptr noundef %220)
  %221 = load i32, ptr %6, align 4, !tbaa !10
  store i32 %221, ptr %3, align 4
  store i32 1, ptr %22, align 4
  br label %222

222:                                              ; preds = %218, %211
  call void @llvm.lifetime.end.p0(i64 48, ptr %20) #6
  call void @llvm.lifetime.end.p0(i64 8, ptr %19) #6
  call void @llvm.lifetime.end.p0(i64 8, ptr %18) #6
  call void @llvm.lifetime.end.p0(i64 8, ptr %17) #6
  call void @llvm.lifetime.end.p0(i64 8, ptr %16) #6
  call void @llvm.lifetime.end.p0(i64 8, ptr %15) #6
  call void @llvm.lifetime.end.p0(i64 8, ptr %14) #6
  call void @llvm.lifetime.end.p0(i64 8, ptr %13) #6
  call void @llvm.lifetime.end.p0(i64 8, ptr %12) #6
  call void @llvm.lifetime.end.p0(i64 8, ptr %11) #6
  call void @llvm.lifetime.end.p0(i64 4, ptr %10) #6
  call void @llvm.lifetime.end.p0(i64 4, ptr %9) #6
  call void @llvm.lifetime.end.p0(i64 4, ptr %8) #6
  call void @llvm.lifetime.end.p0(i64 4, ptr %7) #6
  call void @llvm.lifetime.end.p0(i64 4, ptr %6) #6
  %223 = load i32, ptr %3, align 4
  ret i32 %223
}