; Function Attrs: nounwind uwtable
define i32 @ossl_ec_curve_nid_from_params(ptr noundef %0, ptr noundef %1) local_unnamed_addr #0 {
  %3 = alloca [6 x ptr], align 16
  call void @llvm.lifetime.start.p0(i64 48, ptr nonnull %3) #7
  call void @llvm.memset.p0.i64(ptr noundef nonnull align 16 dereferenceable(48) %3, i8 0, i64 48, i1 false)
  %4 = tail call i32 @EC_GROUP_get_curve_name(ptr noundef %0) #7
  %5 = tail call i32 @EC_GROUP_get_field_type(ptr noundef %0) #7
  %6 = tail call i64 @EC_GROUP_get_seed_len(ptr noundef %0) #7
  %.fr97 = freeze i64 %6
  %7 = tail call ptr @EC_GROUP_get0_seed(ptr noundef %0) #7
  %8 = tail call ptr @EC_GROUP_get0_cofactor(ptr noundef %0) #7
  tail call void @BN_CTX_start(ptr noundef %1) #7
  %9 = getelementptr inbounds nuw i8, ptr %0, i64 16
  %10 = load ptr, ptr %9, align 8, !tbaa !33
  %11 = tail call i32 @BN_num_bits(ptr noundef %10) #7
  %12 = add nsw i32 %11, 7
  %13 = sdiv i32 %12, 8
  %14 = getelementptr inbounds nuw i8, ptr %0, i64 64
  %15 = load ptr, ptr %14, align 8, !tbaa !34
  %16 = tail call i32 @BN_num_bits(ptr noundef %15) #7
  %17 = add nsw i32 %16, 7
  %18 = sdiv i32 %17, 8
  %spec.select = tail call i32 @llvm.smax.i32(i32 %18, i32 %13)
  %19 = mul nsw i32 %spec.select, 6
  %20 = sext i32 %19 to i64
  %21 = tail call noalias ptr @CRYPTO_malloc(i64 noundef %20, ptr noundef nonnull @.str, i32 noundef 3409) #7
  %22 = icmp eq ptr %21, null
  br i1 %22, label %.loopexit, label %.preheader91

23:                                               ; preds = %.preheader91
  %24 = add nuw nsw i64 %.06793, 1
  %exitcond.not = icmp eq i64 %24, 6
  br i1 %exitcond.not, label %28, label %.preheader91, !llvm.loop !35

.preheader91:                                     ; preds = %2, %23
  %.06793 = phi i64 [ %24, %23 ], [ 0, %2 ]
  %25 = tail call ptr @BN_CTX_get(ptr noundef %1) #7
  %26 = getelementptr inbounds nuw [6 x ptr], ptr %3, i64 0, i64 %.06793
  store ptr %25, ptr %26, align 8, !tbaa !36
  %27 = icmp eq ptr %25, null
  br i1 %27, label %.loopexit, label %23

28:                                               ; preds = %23
  %29 = load ptr, ptr %3, align 16, !tbaa !36
  %30 = getelementptr inbounds nuw i8, ptr %3, i64 8
  %31 = load ptr, ptr %30, align 8, !tbaa !36
  %32 = getelementptr inbounds nuw i8, ptr %3, i64 16
  %33 = load ptr, ptr %32, align 16, !tbaa !36
  %34 = tail call i32 @EC_GROUP_get_curve(ptr noundef %0, ptr noundef %29, ptr noundef %31, ptr noundef %33, ptr noundef %1) #7
  %.not = icmp eq i32 %34, 0
  br i1 %.not, label %.loopexit, label %35

35:                                               ; preds = %28
  %36 = tail call ptr @EC_GROUP_get0_generator(ptr noundef %0) #7
  %.not77 = icmp eq ptr %36, null
  br i1 %.not77, label %.loopexit, label %37

37:                                               ; preds = %35
  %38 = getelementptr inbounds nuw i8, ptr %3, i64 24
  %39 = load ptr, ptr %38, align 8, !tbaa !36
  %40 = getelementptr inbounds nuw i8, ptr %3, i64 32
  %41 = load ptr, ptr %40, align 16, !tbaa !36
  %42 = tail call i32 @EC_POINT_get_affine_coordinates(ptr noundef %0, ptr noundef nonnull %36, ptr noundef %39, ptr noundef %41, ptr noundef %1) #7
  %.not78 = icmp eq i32 %42, 0
  br i1 %.not78, label %.loopexit, label %43

43:                                               ; preds = %37
  %44 = getelementptr inbounds nuw i8, ptr %3, i64 40
  %45 = load ptr, ptr %44, align 8, !tbaa !36
  %46 = tail call i32 @EC_GROUP_get_order(ptr noundef %0, ptr noundef %45, ptr noundef %1) #7
  %.not79 = icmp eq i32 %46, 0
  br i1 %.not79, label %.loopexit, label %.preheader89

.preheader89:                                     ; preds = %43
  %47 = sext i32 %spec.select to i64
  br label %76

48:                                               ; preds = %76
  %49 = add nuw nsw i64 %.16894, 1
  %exitcond102.not = icmp eq i64 %49, 6
  br i1 %exitcond102.not, label %.preheader, label %76, !llvm.loop !37

.preheader:                                       ; preds = %48
  %50 = icmp slt i32 %4, 1
  %51 = icmp eq i64 %.fr97, 0
  br i1 %51, label %.preheader.split.us, label %.preheader.split

.preheader.split.us:                              ; preds = %.preheader, %74
  %.26995.us = phi i64 [ %75, %74 ], [ 0, %.preheader ]
  %52 = getelementptr inbounds nuw [82 x %struct._ec_list_element_st], ptr @curve_list, i64 0, i64 %.26995.us
  %.sroa.0.0.copyload.us = load i32, ptr %52, align 16, !tbaa !38
  %.sroa.53.0..sroa_idx.us = getelementptr inbounds nuw i8, ptr %52, i64 8
  %.sroa.53.0.copyload.us = load ptr, ptr %.sroa.53.0..sroa_idx.us, align 8, !tbaa !39
  %53 = getelementptr inbounds nuw i8, ptr %.sroa.53.0.copyload.us, i64 16
  %54 = getelementptr inbounds nuw i8, ptr %.sroa.53.0.copyload.us, i64 4
  %55 = load i32, ptr %54, align 4, !tbaa !12
  %56 = sext i32 %55 to i64
  %57 = getelementptr inbounds i8, ptr %53, i64 %56
  %58 = load i32, ptr %.sroa.53.0.copyload.us, align 4, !tbaa !26
  %59 = icmp eq i32 %58, %5
  br i1 %59, label %60, label %74

60:                                               ; preds = %.preheader.split.us
  %61 = getelementptr inbounds nuw i8, ptr %.sroa.53.0.copyload.us, i64 8
  %62 = load i32, ptr %61, align 4, !tbaa !14
  %63 = icmp eq i32 %spec.select, %62
  %64 = icmp eq i32 %4, %.sroa.0.0.copyload.us
  %or.cond83.us = select i1 %50, i1 true, i1 %64
  %or.cond = select i1 %63, i1 %or.cond83.us, i1 false
  br i1 %or.cond, label %65, label %74

65:                                               ; preds = %60
  %66 = tail call i32 @BN_is_zero(ptr noundef %8) #7
  %.not80.us = icmp eq i32 %66, 0
  br i1 %.not80.us, label %67, label %72

67:                                               ; preds = %65
  %68 = getelementptr inbounds nuw i8, ptr %.sroa.53.0.copyload.us, i64 12
  %69 = load i32, ptr %68, align 4, !tbaa !27
  %70 = zext i32 %69 to i64
  %71 = tail call i32 @BN_is_word(ptr noundef %8, i64 noundef %70) #7
  %.not81.us = icmp eq i32 %71, 0
  br i1 %.not81.us, label %74, label %72

72:                                               ; preds = %67, %65
  %bcmp82.us = tail call i32 @bcmp(ptr nonnull %21, ptr nonnull %57, i64 %20)
  %73 = icmp eq i32 %bcmp82.us, 0
  br i1 %73, label %.loopexit, label %74

74:                                               ; preds = %72, %67, %60, %.preheader.split.us
  %75 = add nuw nsw i64 %.26995.us, 1
  %exitcond104.not = icmp eq i64 %75, 82
  br i1 %exitcond104.not, label %.loopexit, label %.preheader.split.us, !llvm.loop !40

76:                                               ; preds = %.preheader89, %48
  %.16894 = phi i64 [ 0, %.preheader89 ], [ %49, %48 ]
  %77 = getelementptr inbounds nuw [6 x ptr], ptr %3, i64 0, i64 %.16894
  %78 = load ptr, ptr %77, align 8, !tbaa !36
  %79 = mul nsw i64 %.16894, %47
  %80 = getelementptr inbounds nuw i8, ptr %21, i64 %79
  %81 = tail call i32 @BN_bn2binpad(ptr noundef %78, ptr noundef nonnull %80, i32 noundef %spec.select) #7
  %82 = icmp slt i32 %81, 1
  br i1 %82, label %.loopexit, label %48

.preheader.split:                                 ; preds = %.preheader, %113
  %.26995 = phi i64 [ %114, %113 ], [ 0, %.preheader ]
  %83 = getelementptr inbounds nuw [82 x %struct._ec_list_element_st], ptr @curve_list, i64 0, i64 %.26995
  %.sroa.0.0.copyload = load i32, ptr %83, align 16, !tbaa !38
  %.sroa.53.0..sroa_idx = getelementptr inbounds nuw i8, ptr %83, i64 8
  %.sroa.53.0.copyload = load ptr, ptr %.sroa.53.0..sroa_idx, align 8, !tbaa !39
  %84 = getelementptr inbounds nuw i8, ptr %.sroa.53.0.copyload, i64 16
  %85 = getelementptr inbounds nuw i8, ptr %.sroa.53.0.copyload, i64 4
  %86 = load i32, ptr %85, align 4, !tbaa !12
  %87 = sext i32 %86 to i64
  %88 = getelementptr inbounds i8, ptr %84, i64 %87
  %89 = load i32, ptr %.sroa.53.0.copyload, align 4, !tbaa !26
  %90 = icmp eq i32 %89, %5
  br i1 %90, label %91, label %113

91:                                               ; preds = %.preheader.split
  %92 = getelementptr inbounds nuw i8, ptr %.sroa.53.0.copyload, i64 8
  %93 = load i32, ptr %92, align 4, !tbaa !14
  %94 = icmp eq i32 %spec.select, %93
  %95 = icmp eq i32 %4, %.sroa.0.0.copyload
  %or.cond83 = select i1 %50, i1 true, i1 %95
  %or.cond96 = select i1 %94, i1 %or.cond83, i1 false
  br i1 %or.cond96, label %96, label %113

96:                                               ; preds = %91
  %97 = tail call i32 @BN_is_zero(ptr noundef %8) #7
  %.not80 = icmp eq i32 %97, 0
  br i1 %.not80, label %98, label %103

98:                                               ; preds = %96
  %99 = getelementptr inbounds nuw i8, ptr %.sroa.53.0.copyload, i64 12
  %100 = load i32, ptr %99, align 4, !tbaa !27
  %101 = zext i32 %100 to i64
  %102 = tail call i32 @BN_is_word(ptr noundef %8, i64 noundef %101) #7
  %.not81 = icmp eq i32 %102, 0
  br i1 %.not81, label %113, label %103

103:                                              ; preds = %98, %96
  %104 = load i32, ptr %85, align 4, !tbaa !12
  %105 = icmp eq i32 %104, 0
  br i1 %105, label %111, label %106

106:                                              ; preds = %103
  %107 = sext i32 %104 to i64
  %108 = icmp eq i64 %.fr97, %107
  br i1 %108, label %109, label %113

109:                                              ; preds = %106
  %bcmp = tail call i32 @bcmp(ptr nonnull %84, ptr %7, i64 %.fr97)
  %110 = icmp eq i32 %bcmp, 0
  br i1 %110, label %111, label %113

111:                                              ; preds = %109, %103
  %bcmp82 = tail call i32 @bcmp(ptr nonnull %21, ptr nonnull %88, i64 %20)
  %112 = icmp eq i32 %bcmp82, 0
  br i1 %112, label %.loopexit, label %113

113:                                              ; preds = %.preheader.split, %91, %98, %106, %109, %111
  %114 = add nuw nsw i64 %.26995, 1
  %exitcond103.not = icmp eq i64 %114, 82
  br i1 %exitcond103.not, label %.loopexit, label %.preheader.split, !llvm.loop !40

.loopexit:                                        ; preds = %.preheader91, %76, %113, %111, %74, %72, %28, %35, %37, %43, %2
  %.065 = phi i32 [ -1, %2 ], [ -1, %43 ], [ -1, %37 ], [ -1, %35 ], [ -1, %28 ], [ %.sroa.0.0.copyload.us, %72 ], [ 0, %74 ], [ %.sroa.0.0.copyload, %111 ], [ 0, %113 ], [ -1, %76 ], [ -1, %.preheader91 ]
  tail call void @CRYPTO_free(ptr noundef %21, ptr noundef nonnull @.str, i32 noundef 3470) #7
  tail call void @BN_CTX_end(ptr noundef %1) #7
  call void @llvm.lifetime.end.p0(i64 48, ptr nonnull %3) #7
  ret i32 %.065
}